target datalayout = "e-m:e-p270:32:32-p271:32:32-p272:64:64-i64:64-i128:128-f80:128-n8:16:32:64-S128"
target triple = "x86_64-pc-linux-gnu"

%struct._typeobject = type { %struct.PyVarObject, ptr, i64, i64, ptr, i64, ptr, ptr, ptr, ptr, ptr, ptr, ptr, ptr, ptr, ptr, ptr, ptr, ptr, i64, ptr, ptr, ptr, ptr, i64, ptr, ptr, ptr, ptr, ptr, ptr, ptr, ptr, ptr, i64, ptr, ptr, ptr, ptr, ptr, ptr, ptr, ptr, ptr, ptr, ptr, i32, ptr, ptr, i8, i16 }
%struct.PyVarObject = type { %struct._object, i64 }
%struct._object = type { %union.anon, ptr }
%union.anon = type { i64 }
%struct.anon.0 = type { i32, i32 }

@_Py_NoneStruct = external global %struct._object, align 8
@PyExc_TypeError = external global ptr, align 8
@UnraisableHookArgsType = internal global %struct._typeobject zeroinitializer, align 8
@.str.18 = private unnamed_addr constant [60 x i8] c"sys.unraisablehook argument type must be UnraisableHookArgs\00", align 1
@_Py_tss_tstate = external thread_local global ptr, align 8

; Function Attrs: alwaysinline nounwind uwtable
define internal i32 @_Py_IsImmortal(ptr noundef %0) #3 {
  %2 = alloca ptr, align 8
  store ptr %0, ptr %2, align 8, !tbaa !9
  %3 = load ptr, ptr %2, align 8, !tbaa !9
  %4 = getelementptr inbounds nuw %struct._object, ptr %3, i32 0, i32 0
  %5 = getelementptr inbounds nuw %struct.anon.0, ptr %4, i32 0, i32 0
  %6 = load i32, ptr %5, align 8, !tbaa !36
  %7 = icmp slt i32 %6, 0
  %8 = zext i1 %7 to i32
  ret i32 %8
}

; Function Attrs: alwaysinline nounwind uwtable
define internal void @Py_DECREF(ptr noundef %0) #3 {
  %2 = alloca ptr, align 8
  store ptr %0, ptr %2, align 8, !tbaa !9
  %3 = load ptr, ptr %2, align 8, !tbaa !9
  %4 = call i32 @_Py_IsImmortal(ptr noundef %3)
  %5 = icmp ne i32 %4, 0
  br i1 %5, label %6, label %7

6:                                                ; preds = %1
  br label %16

7:                                                ; preds = %1
  %8 = load ptr, ptr %2, align 8, !tbaa !9
  %9 = getelementptr inbounds nuw %struct._object, ptr %8, i32 0, i32 0
  %10 = getelementptr inbounds nuw %struct.anon.0, ptr %9, i32 0, i32 0
  %11 = load i32, ptr %10, align 8, !tbaa !36
  %12 = add i32 %11, -1
  store i32 %12, ptr %10, align 8, !tbaa !36
  %13 = icmp eq i32 %12, 0
  br i1 %13, label %14, label %16

14:                                               ; preds = %7
  %15 = load ptr, ptr %2, align 8, !tbaa !9
  call void @_Py_Dealloc(ptr noundef %15)
  br label %16

16:                                               ; preds = %6, %14, %7
  ret void
}

; Function Attrs: inlinehint nounwind uwtable
define internal ptr @_Py_TYPE(ptr noundef %0) #2 {
  %2 = alloca ptr, align 8
  store ptr %0, ptr %2, align 8, !tbaa !9
  %3 = load ptr, ptr %2, align 8, !tbaa !9
  %4 = getelementptr inbounds nuw %struct._object, ptr %3, i32 0, i32 1
  %5 = load ptr, ptr %4, align 8, !tbaa !26
  ret ptr %5
}

; Function Attrs: nounwind uwtable
define dso_local void @_PyErr_SetString(ptr noundef %0, ptr noundef %1, ptr noundef %2) #0 {
  %4 = alloca ptr, align 8
  %5 = alloca ptr, align 8
  %6 = alloca ptr, align 8
  %7 = alloca ptr, align 8
  store ptr %0, ptr %4, align 8, !tbaa !4
  store ptr %1, ptr %5, align 8, !tbaa !9
  store ptr %2, ptr %6, align 8, !tbaa !38
  call void @llvm.lifetime.start.p0(i64 8, ptr %7) #13
  %8 = load ptr, ptr %6, align 8, !tbaa !38
  %9 = call ptr @PyUnicode_FromString(ptr noundef %8)
  store ptr %9, ptr %7, align 8, !tbaa !9
  %10 = load ptr, ptr %7, align 8, !tbaa !9
  %11 = icmp ne ptr %10, null
  br i1 %11, label %12, label %17

12:                                               ; preds = %3
  %13 = load ptr, ptr %4, align 8, !tbaa !4
  %14 = load ptr, ptr %5, align 8, !tbaa !9
  %15 = load ptr, ptr %7, align 8, !tbaa !9
  call void @_PyErr_SetObject(ptr noundef %13, ptr noundef %14, ptr noundef %15)
  %16 = load ptr, ptr %7, align 8, !tbaa !9
  call void @Py_DECREF(ptr noundef %16)
  br label %17

17:                                               ; preds = %12, %3
  call void @llvm.lifetime.end.p0(i64 8, ptr %7) #13
  ret void
}

; Function Attrs: inlinehint nounwind uwtable
define internal i32 @Py_IS_TYPE(ptr noundef %0, ptr noundef %1) #2 {
  %3 = alloca ptr, align 8
  %4 = alloca ptr, align 8
  store ptr %0, ptr %3, align 8, !tbaa !9
  store ptr %1, ptr %4, align 8, !tbaa !37
  %5 = load ptr, ptr %3, align 8, !tbaa !9
  %6 = call ptr @_Py_TYPE(ptr noundef %5)
  %7 = load ptr, ptr %4, align 8, !tbaa !37
  %8 = icmp eq ptr %6, %7
  %9 = zext i1 %8 to i32
  ret i32 %9
}

; Function Attrs: inlinehint nounwind uwtable
define internal ptr @_PyThreadState_GET() #2 {
  %1 = call align 8 ptr @llvm.threadlocal.address.p0(ptr align 8 @_Py_tss_tstate)
  %2 = load ptr, ptr %1, align 8, !tbaa !4
  ret ptr %2
}

; Function Attrs: nounwind uwtable
define hidden ptr @_PyErr_WriteUnraisableDefaultHook(ptr noundef %0) #0 {
  %2 = alloca ptr, align 8
  %3 = alloca ptr, align 8
  %4 = alloca ptr, align 8
  %5 = alloca i32, align 4
  %6 = alloca ptr, align 8
  %7 = alloca ptr, align 8
  %8 = alloca ptr, align 8
  %9 = alloca ptr, align 8
  %10 = alloca ptr, align 8
  store ptr %0, ptr %3, align 8, !tbaa !9
  call void @llvm.lifetime.start.p0(i64 8, ptr %4) #13
  %11 = call ptr @_PyThreadState_GET()
  store ptr %11, ptr %4, align 8, !tbaa !4
  %12 = load ptr, ptr %3, align 8, !tbaa !9
  %13 = call i32 @Py_IS_TYPE(ptr noundef %12, ptr noundef @UnraisableHookArgsType)
  %14 = icmp ne i32 %13, 0
  br i1 %14, label %18, label %15

15:                                               ; preds = %1
  %16 = load ptr, ptr %4, align 8, !tbaa !4
  %17 = load ptr, ptr @PyExc_TypeError, align 8, !tbaa !9
  call void @_PyErr_SetString(ptr noundef %16, ptr noundef %17, ptr noundef @.str.18)
  store ptr null, ptr %2, align 8
  store i32 1, ptr %5, align 4
  br label %40

18:                                               ; preds = %1
  call void @llvm.lifetime.start.p0(i64 8, ptr %6) #13
  %19 = load ptr, ptr %3, align 8, !tbaa !9
  %20 = call ptr @PyStructSequence_GetItem(ptr noundef %19, i64 noundef 0)
  store ptr %20, ptr %6, align 8, !tbaa !9
  call void @llvm.lifetime.start.p0(i64 8, ptr %7) #13
  %21 = load ptr, ptr %3, align 8, !tbaa !9
  %22 = call ptr @PyStructSequence_GetItem(ptr noundef %21, i64 noundef 1)
  store ptr %22, ptr %7, align 8, !tbaa !9
  call void @llvm.lifetime.start.p0(i64 8, ptr %8) #13
  %23 = load ptr, ptr %3, align 8, !tbaa !9
  %24 = call ptr @PyStructSequence_GetItem(ptr noundef %23, i64 noundef 2)
  store ptr %24, ptr %8, align 8, !tbaa !9
  call void @llvm.lifetime.start.p0(i64 8, ptr %9) #13
  %25 = load ptr, ptr %3, align 8, !tbaa !9
  %26 = call ptr @PyStructSequence_GetItem(ptr noundef %25, i64 noundef 3)
  store ptr %26, ptr %9, align 8, !tbaa !9
  call void @llvm.lifetime.start.p0(i64 8, ptr %10) #13
  %27 = load ptr, ptr %3, align 8, !tbaa !9
  %28 = call ptr @PyStructSequence_GetItem(ptr noundef %27, i64 noundef 4)
  store ptr %28, ptr %10, align 8, !tbaa !9
  %29 = load ptr, ptr %4, align 8, !tbaa !4
  %30 = load ptr, ptr %6, align 8, !tbaa !9
  %31 = load ptr, ptr %7, align 8, !tbaa !9
  %32 = load ptr, ptr %8, align 8, !tbaa !9
  %33 = load ptr, ptr %9, align 8, !tbaa !9
  %34 = load ptr, ptr %10, align 8, !tbaa !9
  %35 = call i32 @write_unraisable_exc(ptr noundef %29, ptr noundef %30, ptr noundef %31, ptr noundef %32, ptr noundef %33, ptr noundef %34)
  %36 = icmp slt i32 %35, 0
  br i1 %36, label %37, label %38

37:                                               ; preds = %18
  store ptr null, ptr %2, align 8
  store i32 1, ptr %5, align 4
  br label %39

38:                                               ; preds = %18
  store ptr @_Py_NoneStruct, ptr %2, align 8
  store i32 1, ptr %5, align 4
  br label %39

39:                                               ; preds = %38, %37
  call void @llvm.lifetime.end.p0(i64 8, ptr %10) #13
  call void @llvm.lifetime.end.p0(i64 8, ptr %9) #13
  call void @llvm.lifetime.end.p0(i64 8, ptr %8) #13
  call void @llvm.lifetime.end.p0(i64 8, ptr %7) #13
  call void @llvm.lifetime.end.p0(i64 8, ptr %6) #13
  br label %40

40:                                               ; preds = %39, %15
  call void @llvm.lifetime.end.p0(i64 8, ptr %4) #13
  %41 = load ptr, ptr %2, align 8
  ret ptr %41
}