; Function Attrs: nounwind uwtable
define hidden ptr @_PyErr_WriteUnraisableDefaultHook(ptr noundef %0) local_unnamed_addr #0 {
  %2 = tail call align 8 ptr @llvm.threadlocal.address.p0(ptr align 8 @_Py_tss_tstate)
  %3 = load ptr, ptr %2, align 8, !tbaa !25
  %4 = getelementptr i8, ptr %0, i64 8
  %.val = load ptr, ptr %4, align 8, !tbaa !21
  %.not = icmp eq ptr %.val, @UnraisableHookArgsType
  br i1 %.not, label %14, label %5

5:                                                ; preds = %1
  %6 = load ptr, ptr @PyExc_TypeError, align 8, !tbaa !24
  %7 = tail call ptr @PyUnicode_FromString(ptr noundef nonnull @.str.18) #17
  %.not.i = icmp eq ptr %7, null
  br i1 %.not.i, label %_PyErr_SetString.exit, label %8

8:                                                ; preds = %5
  tail call void @_PyErr_SetObject(ptr noundef %3, ptr noundef %6, ptr noundef nonnull %7)
  %9 = load i32, ptr %7, align 8, !tbaa !20
  %.not.i.i = icmp sgt i32 %9, -1
  br i1 %.not.i.i, label %10, label %_PyErr_SetString.exit

10:                                               ; preds = %8
  %11 = add nsw i32 %9, -1
  store i32 %11, ptr %7, align 8, !tbaa !20
  %12 = icmp eq i32 %11, 0
  br i1 %12, label %13, label %_PyErr_SetString.exit

13:                                               ; preds = %10
  tail call void @_Py_Dealloc(ptr noundef nonnull %7) #17
  br label %_PyErr_SetString.exit

14:                                               ; preds = %1
  %15 = tail call ptr @PyStructSequence_GetItem(ptr noundef nonnull %0, i64 noundef 0) #17
  %16 = tail call ptr @PyStructSequence_GetItem(ptr noundef nonnull %0, i64 noundef 1) #17
  %17 = tail call ptr @PyStructSequence_GetItem(ptr noundef nonnull %0, i64 noundef 2) #17
  %18 = tail call ptr @PyStructSequence_GetItem(ptr noundef nonnull %0, i64 noundef 3) #17
  %19 = tail call ptr @PyStructSequence_GetItem(ptr noundef nonnull %0, i64 noundef 4) #17
  %20 = tail call fastcc i32 @write_unraisable_exc(ptr noundef %3, ptr noundef %15, ptr noundef %16, ptr noundef %17, ptr noundef %18, ptr noundef %19)
  %21 = icmp slt i32 %20, 0
  %._Py_NoneStruct = select i1 %21, ptr null, ptr @_Py_NoneStruct
  br label %_PyErr_SetString.exit

_PyErr_SetString.exit:                            ; preds = %13, %10, %8, %5, %14
  %.0 = phi ptr [ %._Py_NoneStruct, %14 ], [ null, %5 ], [ null, %8 ], [ null, %10 ], [ null, %13 ]
  ret ptr %.0
}